target datalayout = "e-m:e-p270:32:32-p271:32:32-p272:64:64-i64:64-i128:128-f80:128-n8:16:32:64-S128"
target triple = "x86_64-pc-linux-gnu"

%struct.lzma_lzma2_coder = type { i32, ptr, %struct.lzma_options_lzma, i8, i8, i8, i64, i64, i64, [65542 x i8] }
%struct.lzma_options_lzma = type { i32, ptr, i32, i32, i32, i32, i32, i32, i32, i32, i32, i32, i32, i32, i32, i32, i32, i32, i32, i32, i32, i32, ptr, ptr }
%struct.lzma_filter = type { i64, ptr }

; Function Attrs: nounwind uwtable
define internal i32 @lzma2_encoder_options_update(ptr noundef %0, ptr noundef %1) #0 {
  %3 = alloca i32, align 4
  %4 = alloca ptr, align 8
  %5 = alloca ptr, align 8
  %6 = alloca ptr, align 8
  %7 = alloca ptr, align 8
  store ptr %0, ptr %4, align 8
  store ptr %1, ptr %5, align 8
  %8 = load ptr, ptr %4, align 8
  store ptr %8, ptr %6, align 8
  %9 = load ptr, ptr %5, align 8
  %10 = getelementptr inbounds %struct.lzma_filter, ptr %9, i32 0, i32 1
  %11 = load ptr, ptr %10, align 8
  %12 = icmp eq ptr %11, null
  br i1 %12, label %18, label %13

13:                                               ; preds = %2
  %14 = load ptr, ptr %6, align 8
  %15 = getelementptr inbounds %struct.lzma_lzma2_coder, ptr %14, i32 0, i32 0
  %16 = load i32, ptr %15, align 8
  %17 = icmp ne i32 %16, 0
  br i1 %17, label %18, label %19

18:                                               ; preds = %13, %2
  store i32 11, ptr %3, align 4
  br label %98

19:                                               ; preds = %13
  %20 = load ptr, ptr %5, align 8
  %21 = getelementptr inbounds %struct.lzma_filter, ptr %20, i32 0, i32 1
  %22 = load ptr, ptr %21, align 8
  store ptr %22, ptr %7, align 8
  %23 = load ptr, ptr %6, align 8
  %24 = getelementptr inbounds %struct.lzma_lzma2_coder, ptr %23, i32 0, i32 2
  %25 = getelementptr inbounds %struct.lzma_options_lzma, ptr %24, i32 0, i32 3
  %26 = load i32, ptr %25, align 4
  %27 = load ptr, ptr %7, align 8
  %28 = getelementptr inbounds %struct.lzma_options_lzma, ptr %27, i32 0, i32 3
  %29 = load i32, ptr %28, align 4
  %30 = icmp ne i32 %26, %29
  br i1 %30, label %49, label %31

31:                                               ; preds = %19
  %32 = load ptr, ptr %6, align 8
  %33 = getelementptr inbounds %struct.lzma_lzma2_coder, ptr %32, i32 0, i32 2
  %34 = getelementptr inbounds %struct.lzma_options_lzma, ptr %33, i32 0, i32 4
  %35 = load i32, ptr %34, align 8
  %36 = load ptr, ptr %7, align 8
  %37 = getelementptr inbounds %struct.lzma_options_lzma, ptr %36, i32 0, i32 4
  %38 = load i32, ptr %37, align 8
  %39 = icmp ne i32 %35, %38
  br i1 %39, label %49, label %40

40:                                               ; preds = %31
  %41 = load ptr, ptr %6, align 8
  %42 = getelementptr inbounds %struct.lzma_lzma2_coder, ptr %41, i32 0, i32 2
  %43 = getelementptr inbounds %struct.lzma_options_lzma, ptr %42, i32 0, i32 5
  %44 = load i32, ptr %43, align 4
  %45 = load ptr, ptr %7, align 8
  %46 = getelementptr inbounds %struct.lzma_options_lzma, ptr %45, i32 0, i32 5
  %47 = load i32, ptr %46, align 4
  %48 = icmp ne i32 %44, %47
  br i1 %48, label %49, label %97

49:                                               ; preds = %40, %31, %19
  %50 = load ptr, ptr %7, align 8
  %51 = getelementptr inbounds %struct.lzma_options_lzma, ptr %50, i32 0, i32 3
  %52 = load i32, ptr %51, align 4
  %53 = icmp ugt i32 %52, 4
  br i1 %53, label %73, label %54

54:                                               ; preds = %49
  %55 = load ptr, ptr %7, align 8
  %56 = getelementptr inbounds %struct.lzma_options_lzma, ptr %55, i32 0, i32 4
  %57 = load i32, ptr %56, align 8
  %58 = icmp ugt i32 %57, 4
  br i1 %58, label %73, label %59

59:                                               ; preds = %54
  %60 = load ptr, ptr %7, align 8
  %61 = getelementptr inbounds %struct.lzma_options_lzma, ptr %60, i32 0, i32 3
  %62 = load i32, ptr %61, align 4
  %63 = load ptr, ptr %7, align 8
  %64 = getelementptr inbounds %struct.lzma_options_lzma, ptr %63, i32 0, i32 4
  %65 = load i32, ptr %64, align 8
  %66 = add i32 %62, %65
  %67 = icmp ugt i32 %66, 4
  br i1 %67, label %73, label %68

68:                                               ; preds = %59
  %69 = load ptr, ptr %7, align 8
  %70 = getelementptr inbounds %struct.lzma_options_lzma, ptr %69, i32 0, i32 5
  %71 = load i32, ptr %70, align 4
  %72 = icmp ugt i32 %71, 4
  br i1 %72, label %73, label %74

73:                                               ; preds = %68, %59, %54, %49
  store i32 8, ptr %3, align 4
  br label %98

74:                                               ; preds = %68
  %75 = load ptr, ptr %7, align 8
  %76 = getelementptr inbounds %struct.lzma_options_lzma, ptr %75, i32 0, i32 3
  %77 = load i32, ptr %76, align 4
  %78 = load ptr, ptr %6, align 8
  %79 = getelementptr inbounds %struct.lzma_lzma2_coder, ptr %78, i32 0, i32 2
  %80 = getelementptr inbounds %struct.lzma_options_lzma, ptr %79, i32 0, i32 3
  store i32 %77, ptr %80, align 4
  %81 = load ptr, ptr %7, align 8
  %82 = getelementptr inbounds %struct.lzma_options_lzma, ptr %81, i32 0, i32 4
  %83 = load i32, ptr %82, align 8
  %84 = load ptr, ptr %6, align 8
  %85 = getelementptr inbounds %struct.lzma_lzma2_coder, ptr %84, i32 0, i32 2
  %86 = getelementptr inbounds %struct.lzma_options_lzma, ptr %85, i32 0, i32 4
  store i32 %83, ptr %86, align 8
  %87 = load ptr, ptr %7, align 8
  %88 = getelementptr inbounds %struct.lzma_options_lzma, ptr %87, i32 0, i32 5
  %89 = load i32, ptr %88, align 4
  %90 = load ptr, ptr %6, align 8
  %91 = getelementptr inbounds %struct.lzma_lzma2_coder, ptr %90, i32 0, i32 2
  %92 = getelementptr inbounds %struct.lzma_options_lzma, ptr %91, i32 0, i32 5
  store i32 %89, ptr %92, align 4
  %93 = load ptr, ptr %6, align 8
  %94 = getelementptr inbounds %struct.lzma_lzma2_coder, ptr %93, i32 0, i32 3
  store i8 1, ptr %94, align 8
  %95 = load ptr, ptr %6, align 8
  %96 = getelementptr inbounds %struct.lzma_lzma2_coder, ptr %95, i32 0, i32 4
  store i8 1, ptr %96, align 1
  br label %97

97:                                               ; preds = %74, %40
  store i32 0, ptr %3, align 4
  br label %98

98:                                               ; preds = %97, %73, %18
  %99 = load i32, ptr %3, align 4
  ret i32 %99
}