; Function Attrs: mustprogress nofree norecurse nosync nounwind willreturn memory(read, argmem: readwrite, inaccessiblemem: none) uwtable
define internal range(i32 0, 12) i32 @lzma2_encoder_options_update(ptr noundef captures(none) %0, ptr noundef readonly captures(none) %1) #4 {
  %3 = getelementptr inbounds nuw i8, ptr %1, i64 8
  %4 = load ptr, ptr %3, align 8
  %5 = icmp eq ptr %4, null
  br i1 %5, label %42, label %6

6:                                                ; preds = %2
  %7 = load i32, ptr %0, align 8
  %.not = icmp eq i32 %7, 0
  br i1 %.not, label %8, label %42

8:                                                ; preds = %6
  %9 = getelementptr inbounds nuw i8, ptr %0, i64 36
  %10 = load i32, ptr %9, align 4
  %11 = getelementptr inbounds nuw i8, ptr %4, i64 20
  %12 = load i32, ptr %11, align 4
  %.not26 = icmp eq i32 %10, %12
  br i1 %.not26, label %13, label %23

13:                                               ; preds = %8
  %14 = getelementptr inbounds nuw i8, ptr %0, i64 40
  %15 = load i32, ptr %14, align 8
  %16 = getelementptr inbounds nuw i8, ptr %4, i64 24
  %17 = load i32, ptr %16, align 8
  %.not27 = icmp eq i32 %15, %17
  br i1 %.not27, label %18, label %23

18:                                               ; preds = %13
  %19 = getelementptr inbounds nuw i8, ptr %0, i64 44
  %20 = load i32, ptr %19, align 4
  %21 = getelementptr inbounds nuw i8, ptr %4, i64 28
  %22 = load i32, ptr %21, align 4
  %.not28 = icmp eq i32 %20, %22
  br i1 %.not28, label %42, label %23

23:                                               ; preds = %18, %13, %8
  %24 = icmp ugt i32 %12, 4
  br i1 %24, label %42, label %25

25:                                               ; preds = %23
  %26 = getelementptr inbounds nuw i8, ptr %4, i64 24
  %27 = load i32, ptr %26, align 8
  %28 = icmp ugt i32 %27, 4
  %29 = add nuw nsw i32 %27, %12
  %30 = icmp ugt i32 %29, 4
  %or.cond = select i1 %28, i1 true, i1 %30
  br i1 %or.cond, label %42, label %31

31:                                               ; preds = %25
  %32 = getelementptr inbounds nuw i8, ptr %4, i64 28
  %33 = load i32, ptr %32, align 4
  %34 = icmp ugt i32 %33, 4
  br i1 %34, label %42, label %35

35:                                               ; preds = %31
  store i32 %12, ptr %9, align 4
  %36 = load i32, ptr %26, align 8
  %37 = getelementptr inbounds nuw i8, ptr %0, i64 40
  store i32 %36, ptr %37, align 8
  %38 = load i32, ptr %32, align 4
  %39 = getelementptr inbounds nuw i8, ptr %0, i64 44
  store i32 %38, ptr %39, align 4
  %40 = getelementptr inbounds nuw i8, ptr %0, i64 128
  store i8 1, ptr %40, align 8
  %41 = getelementptr inbounds nuw i8, ptr %0, i64 129
  store i8 1, ptr %41, align 1
  br label %42

42:                                               ; preds = %18, %35, %23, %25, %31, %2, %6
  %.0 = phi i32 [ 11, %6 ], [ 11, %2 ], [ 8, %31 ], [ 8, %25 ], [ 8, %23 ], [ 0, %35 ], [ 0, %18 ]
  ret i32 %.0
}